target datalayout = "e-m:e-p270:32:32-p271:32:32-p272:64:64-i64:64-i128:128-f80:128-n8:16:32:64-S128"
target triple = "x86_64-pc-linux-gnu"

%struct.jpeg_common_struct = type { ptr, ptr, ptr, ptr, i32, i32 }
%struct.jpeg_error_mgr = type { ptr, ptr, ptr, ptr, ptr, i32, %union.anon, i32, i64, ptr, i32, ptr, i32, i32 }
%union.anon = type { [8 x i32], [48 x i8] }
%struct.my_memory_mgr = type { %struct.jpeg_memory_mgr, [2 x ptr], [2 x ptr], ptr, ptr, i64, i32 }
%struct.jpeg_memory_mgr = type { ptr, ptr, ptr, ptr, ptr, ptr, ptr, ptr, ptr, ptr, ptr, i64, i64 }
%struct.anon = type { ptr, i64, i64 }
%struct.anon.0 = type { ptr, i64, i64 }
%struct.jvirt_sarray_control = type { ptr, i32, i32, i32, i32, i32, i32, i32, i32, i32, i32, ptr, %struct.backing_store_struct }
%struct.backing_store_struct = type { ptr, ptr, ptr, ptr, [64 x i8] }
%struct.jvirt_barray_control = type { ptr, i32, i32, i32, i32, i32, i32, i32, i32, i32, i32, ptr, %struct.backing_store_struct }

; Function Attrs: nounwind uwtable
define internal void @free_pool(ptr noundef %0, i32 noundef %1) #0 {
  %3 = alloca ptr, align 8
  %4 = alloca i32, align 4
  %5 = alloca ptr, align 8
  %6 = alloca ptr, align 8
  %7 = alloca ptr, align 8
  %8 = alloca i64, align 8
  %9 = alloca ptr, align 8
  %10 = alloca ptr, align 8
  %11 = alloca ptr, align 8
  %12 = alloca ptr, align 8
  store ptr %0, ptr %3, align 8
  store i32 %1, ptr %4, align 4
  %13 = load ptr, ptr %3, align 8
  %14 = getelementptr inbounds %struct.jpeg_common_struct, ptr %13, i32 0, i32 1
  %15 = load ptr, ptr %14, align 8
  store ptr %15, ptr %5, align 8
  %16 = load i32, ptr %4, align 4
  %17 = icmp slt i32 %16, 0
  br i1 %17, label %21, label %18

18:                                               ; preds = %2
  %19 = load i32, ptr %4, align 4
  %20 = icmp sge i32 %19, 2
  br i1 %20, label %21, label %38

21:                                               ; preds = %18, %2
  %22 = load ptr, ptr %3, align 8
  %23 = getelementptr inbounds %struct.jpeg_common_struct, ptr %22, i32 0, i32 0
  %24 = load ptr, ptr %23, align 8
  %25 = getelementptr inbounds %struct.jpeg_error_mgr, ptr %24, i32 0, i32 5
  store i32 14, ptr %25, align 8
  %26 = load i32, ptr %4, align 4
  %27 = load ptr, ptr %3, align 8
  %28 = getelementptr inbounds %struct.jpeg_common_struct, ptr %27, i32 0, i32 0
  %29 = load ptr, ptr %28, align 8
  %30 = getelementptr inbounds %struct.jpeg_error_mgr, ptr %29, i32 0, i32 6
  %31 = getelementptr inbounds [8 x i32], ptr %30, i64 0, i64 0
  store i32 %26, ptr %31, align 4
  %32 = load ptr, ptr %3, align 8
  %33 = getelementptr inbounds %struct.jpeg_common_struct, ptr %32, i32 0, i32 0
  %34 = load ptr, ptr %33, align 8
  %35 = getelementptr inbounds %struct.jpeg_error_mgr, ptr %34, i32 0, i32 0
  %36 = load ptr, ptr %35, align 8
  %37 = load ptr, ptr %3, align 8
  call void %36(ptr noundef %37)
  br label %38

38:                                               ; preds = %21, %18
  %39 = load i32, ptr %4, align 4
  %40 = icmp eq i32 %39, 1
  br i1 %40, label %41, label %100

41:                                               ; preds = %38
  %42 = load ptr, ptr %5, align 8
  %43 = getelementptr inbounds %struct.my_memory_mgr, ptr %42, i32 0, i32 3
  %44 = load ptr, ptr %43, align 8
  store ptr %44, ptr %9, align 8
  br label %45

45:                                               ; preds = %64, %41
  %46 = load ptr, ptr %9, align 8
  %47 = icmp ne ptr %46, null
  br i1 %47, label %48, label %68

48:                                               ; preds = %45
  %49 = load ptr, ptr %9, align 8
  %50 = getelementptr inbounds %struct.jvirt_sarray_control, ptr %49, i32 0, i32 10
  %51 = load i32, ptr %50, align 4
  %52 = icmp ne i32 %51, 0
  br i1 %52, label %53, label %63

53:                                               ; preds = %48
  %54 = load ptr, ptr %9, align 8
  %55 = getelementptr inbounds %struct.jvirt_sarray_control, ptr %54, i32 0, i32 10
  store i32 0, ptr %55, align 4
  %56 = load ptr, ptr %9, align 8
  %57 = getelementptr inbounds %struct.jvirt_sarray_control, ptr %56, i32 0, i32 12
  %58 = getelementptr inbounds %struct.backing_store_struct, ptr %57, i32 0, i32 2
  %59 = load ptr, ptr %58, align 8
  %60 = load ptr, ptr %3, align 8
  %61 = load ptr, ptr %9, align 8
  %62 = getelementptr inbounds %struct.jvirt_sarray_control, ptr %61, i32 0, i32 12
  call void %59(ptr noundef %60, ptr noundef %62)
  br label %63

63:                                               ; preds = %53, %48
  br label %64

64:                                               ; preds = %63
  %65 = load ptr, ptr %9, align 8
  %66 = getelementptr inbounds %struct.jvirt_sarray_control, ptr %65, i32 0, i32 11
  %67 = load ptr, ptr %66, align 8
  store ptr %67, ptr %9, align 8
  br label %45, !llvm.loop !19

68:                                               ; preds = %45
  %69 = load ptr, ptr %5, align 8
  %70 = getelementptr inbounds %struct.my_memory_mgr, ptr %69, i32 0, i32 3
  store ptr null, ptr %70, align 8
  %71 = load ptr, ptr %5, align 8
  %72 = getelementptr inbounds %struct.my_memory_mgr, ptr %71, i32 0, i32 4
  %73 = load ptr, ptr %72, align 8
  store ptr %73, ptr %10, align 8
  br label %74

74:                                               ; preds = %93, %68
  %75 = load ptr, ptr %10, align 8
  %76 = icmp ne ptr %75, null
  br i1 %76, label %77, label %97

77:                                               ; preds = %74
  %78 = load ptr, ptr %10, align 8
  %79 = getelementptr inbounds %struct.jvirt_barray_control, ptr %78, i32 0, i32 10
  %80 = load i32, ptr %79, align 4
  %81 = icmp ne i32 %80, 0
  br i1 %81, label %82, label %92

82:                                               ; preds = %77
  %83 = load ptr, ptr %10, align 8
  %84 = getelementptr inbounds %struct.jvirt_barray_control, ptr %83, i32 0, i32 10
  store i32 0, ptr %84, align 4
  %85 = load ptr, ptr %10, align 8
  %86 = getelementptr inbounds %struct.jvirt_barray_control, ptr %85, i32 0, i32 12
  %87 = getelementptr inbounds %struct.backing_store_struct, ptr %86, i32 0, i32 2
  %88 = load ptr, ptr %87, align 8
  %89 = load ptr, ptr %3, align 8
  %90 = load ptr, ptr %10, align 8
  %91 = getelementptr inbounds %struct.jvirt_barray_control, ptr %90, i32 0, i32 12
  call void %88(ptr noundef %89, ptr noundef %91)
  br label %92

92:                                               ; preds = %82, %77
  br label %93

93:                                               ; preds = %92
  %94 = load ptr, ptr %10, align 8
  %95 = getelementptr inbounds %struct.jvirt_barray_control, ptr %94, i32 0, i32 11
  %96 = load ptr, ptr %95, align 8
  store ptr %96, ptr %10, align 8
  br label %74, !llvm.loop !20

97:                                               ; preds = %74
  %98 = load ptr, ptr %5, align 8
  %99 = getelementptr inbounds %struct.my_memory_mgr, ptr %98, i32 0, i32 4
  store ptr null, ptr %99, align 8
  br label %100

100:                                              ; preds = %97, %38
  %101 = load ptr, ptr %5, align 8
  %102 = getelementptr inbounds %struct.my_memory_mgr, ptr %101, i32 0, i32 2
  %103 = load i32, ptr %4, align 4
  %104 = sext i32 %103 to i64
  %105 = getelementptr inbounds [2 x ptr], ptr %102, i64 0, i64 %104
  %106 = load ptr, ptr %105, align 8
  store ptr %106, ptr %7, align 8
  %107 = load ptr, ptr %5, align 8
  %108 = getelementptr inbounds %struct.my_memory_mgr, ptr %107, i32 0, i32 2
  %109 = load i32, ptr %4, align 4
  %110 = sext i32 %109 to i64
  %111 = getelementptr inbounds [2 x ptr], ptr %108, i64 0, i64 %110
  store ptr null, ptr %111, align 8
  br label %112

112:                                              ; preds = %115, %100
  %113 = load ptr, ptr %7, align 8
  %114 = icmp ne ptr %113, null
  br i1 %114, label %115, label %136

115:                                              ; preds = %112
  %116 = load ptr, ptr %7, align 8
  %117 = getelementptr inbounds %struct.anon.0, ptr %116, i32 0, i32 0
  %118 = load ptr, ptr %117, align 8
  store ptr %118, ptr %11, align 8
  %119 = load ptr, ptr %7, align 8
  %120 = getelementptr inbounds %struct.anon.0, ptr %119, i32 0, i32 1
  %121 = load i64, ptr %120, align 8
  %122 = load ptr, ptr %7, align 8
  %123 = getelementptr inbounds %struct.anon.0, ptr %122, i32 0, i32 2
  %124 = load i64, ptr %123, align 8
  %125 = add i64 %121, %124
  %126 = add i64 %125, 24
  store i64 %126, ptr %8, align 8
  %127 = load ptr, ptr %3, align 8
  %128 = load ptr, ptr %7, align 8
  %129 = load i64, ptr %8, align 8
  call void @jFreeLarge(ptr noundef %127, ptr noundef %128, i64 noundef %129)
  %130 = load i64, ptr %8, align 8
  %131 = load ptr, ptr %5, align 8
  %132 = getelementptr inbounds %struct.my_memory_mgr, ptr %131, i32 0, i32 5
  %133 = load i64, ptr %132, align 8
  %134 = sub i64 %133, %130
  store i64 %134, ptr %132, align 8
  %135 = load ptr, ptr %11, align 8
  store ptr %135, ptr %7, align 8
  br label %112, !llvm.loop !21

136:                                              ; preds = %112
  %137 = load ptr, ptr %5, align 8
  %138 = getelementptr inbounds %struct.my_memory_mgr, ptr %137, i32 0, i32 1
  %139 = load i32, ptr %4, align 4
  %140 = sext i32 %139 to i64
  %141 = getelementptr inbounds [2 x ptr], ptr %138, i64 0, i64 %140
  %142 = load ptr, ptr %141, align 8
  store ptr %142, ptr %6, align 8
  %143 = load ptr, ptr %5, align 8
  %144 = getelementptr inbounds %struct.my_memory_mgr, ptr %143, i32 0, i32 1
  %145 = load i32, ptr %4, align 4
  %146 = sext i32 %145 to i64
  %147 = getelementptr inbounds [2 x ptr], ptr %144, i64 0, i64 %146
  store ptr null, ptr %147, align 8
  br label %148

148:                                              ; preds = %151, %136
  %149 = load ptr, ptr %6, align 8
  %150 = icmp ne ptr %149, null
  br i1 %150, label %151, label %172

151:                                              ; preds = %148
  %152 = load ptr, ptr %6, align 8
  %153 = getelementptr inbounds %struct.anon, ptr %152, i32 0, i32 0
  %154 = load ptr, ptr %153, align 8
  store ptr %154, ptr %12, align 8
  %155 = load ptr, ptr %6, align 8
  %156 = getelementptr inbounds %struct.anon, ptr %155, i32 0, i32 1
  %157 = load i64, ptr %156, align 8
  %158 = load ptr, ptr %6, align 8
  %159 = getelementptr inbounds %struct.anon, ptr %158, i32 0, i32 2
  %160 = load i64, ptr %159, align 8
  %161 = add i64 %157, %160
  %162 = add i64 %161, 24
  store i64 %162, ptr %8, align 8
  %163 = load ptr, ptr %3, align 8
  %164 = load ptr, ptr %6, align 8
  %165 = load i64, ptr %8, align 8
  call void @jFreeSmall(ptr noundef %163, ptr noundef %164, i64 noundef %165)
  %166 = load i64, ptr %8, align 8
  %167 = load ptr, ptr %5, align 8
  %168 = getelementptr inbounds %struct.my_memory_mgr, ptr %167, i32 0, i32 5
  %169 = load i64, ptr %168, align 8
  %170 = sub i64 %169, %166
  store i64 %170, ptr %168, align 8
  %171 = load ptr, ptr %12, align 8
  store ptr %171, ptr %6, align 8
  br label %148, !llvm.loop !22

172:                                              ; preds = %148
  ret void
}