; Function Attrs: nounwind uwtable
define internal void @free_pool(ptr noundef %0, i32 noundef %1) #0 {
  %3 = getelementptr inbounds i8, ptr %0, i64 8
  %4 = load ptr, ptr %3, align 8
  %or.cond = icmp ugt i32 %1, 1
  br i1 %or.cond, label %.thread, label %11

.thread:                                          ; preds = %2
  %5 = load ptr, ptr %0, align 8
  %6 = getelementptr inbounds i8, ptr %5, i64 40
  store i32 14, ptr %6, align 8
  %7 = load ptr, ptr %0, align 8
  %8 = getelementptr inbounds i8, ptr %7, i64 44
  store i32 %1, ptr %8, align 4
  %9 = load ptr, ptr %0, align 8
  %10 = load ptr, ptr %9, align 8
  tail call void %10(ptr noundef nonnull %0) #6
  br label %32

11:                                               ; preds = %2
  %12 = icmp eq i32 %1, 1
  br i1 %12, label %13, label %32

13:                                               ; preds = %11
  %14 = getelementptr inbounds i8, ptr %4, i64 136
  %.05763 = load ptr, ptr %14, align 8
  %.not64 = icmp eq ptr %.05763, null
  br i1 %.not64, label %._crit_edge, label %.lr.ph

.lr.ph:                                           ; preds = %13, %21
  %.05765 = phi ptr [ %.057, %21 ], [ %.05763, %13 ]
  %15 = getelementptr inbounds i8, ptr %.05765, i64 44
  %16 = load i32, ptr %15, align 4
  %.not62 = icmp eq i32 %16, 0
  br i1 %.not62, label %21, label %17

17:                                               ; preds = %.lr.ph
  store i32 0, ptr %15, align 4
  %18 = getelementptr inbounds i8, ptr %.05765, i64 56
  %19 = getelementptr inbounds i8, ptr %.05765, i64 72
  %20 = load ptr, ptr %19, align 8
  tail call void %20(ptr noundef %0, ptr noundef nonnull %18) #6
  br label %21

21:                                               ; preds = %.lr.ph, %17
  %22 = getelementptr inbounds i8, ptr %.05765, i64 48
  %.057 = load ptr, ptr %22, align 8
  %.not = icmp eq ptr %.057, null
  br i1 %.not, label %._crit_edge, label %.lr.ph, !llvm.loop !20

._crit_edge:                                      ; preds = %21, %13
  store ptr null, ptr %14, align 8
  %23 = getelementptr inbounds i8, ptr %4, i64 144
  %.05666 = load ptr, ptr %23, align 8
  %.not5867 = icmp eq ptr %.05666, null
  br i1 %.not5867, label %._crit_edge71, label %.lr.ph70

.lr.ph70:                                         ; preds = %._crit_edge, %30
  %.05668 = phi ptr [ %.056, %30 ], [ %.05666, %._crit_edge ]
  %24 = getelementptr inbounds i8, ptr %.05668, i64 44
  %25 = load i32, ptr %24, align 4
  %.not61 = icmp eq i32 %25, 0
  br i1 %.not61, label %30, label %26

26:                                               ; preds = %.lr.ph70
  store i32 0, ptr %24, align 4
  %27 = getelementptr inbounds i8, ptr %.05668, i64 56
  %28 = getelementptr inbounds i8, ptr %.05668, i64 72
  %29 = load ptr, ptr %28, align 8
  tail call void %29(ptr noundef %0, ptr noundef nonnull %27) #6
  br label %30

30:                                               ; preds = %.lr.ph70, %26
  %31 = getelementptr inbounds i8, ptr %.05668, i64 48
  %.056 = load ptr, ptr %31, align 8
  %.not58 = icmp eq ptr %.056, null
  br i1 %.not58, label %._crit_edge71, label %.lr.ph70, !llvm.loop !21

._crit_edge71:                                    ; preds = %30, %._crit_edge
  store ptr null, ptr %23, align 8
  br label %32

32:                                               ; preds = %.thread, %._crit_edge71, %11
  %33 = getelementptr inbounds i8, ptr %4, i64 120
  %34 = sext i32 %1 to i64
  %35 = getelementptr inbounds [2 x ptr], ptr %33, i64 0, i64 %34
  %36 = load ptr, ptr %35, align 8
  store ptr null, ptr %35, align 8
  %.not5972 = icmp eq ptr %36, null
  br i1 %.not5972, label %._crit_edge76, label %.lr.ph75

.lr.ph75:                                         ; preds = %32
  %37 = getelementptr inbounds i8, ptr %4, i64 152
  br label %38

38:                                               ; preds = %.lr.ph75, %38
  %.05573 = phi ptr [ %36, %.lr.ph75 ], [ %39, %38 ]
  %39 = load ptr, ptr %.05573, align 8
  %40 = getelementptr inbounds i8, ptr %.05573, i64 8
  %41 = load i64, ptr %40, align 8
  %42 = getelementptr inbounds i8, ptr %.05573, i64 16
  %43 = load i64, ptr %42, align 8
  %44 = add i64 %41, 24
  %45 = add i64 %44, %43
  tail call void @jFreeLarge(ptr noundef %0, ptr noundef nonnull %.05573, i64 noundef %45) #6
  %46 = load i64, ptr %37, align 8
  %47 = sub i64 %46, %45
  store i64 %47, ptr %37, align 8
  %.not59 = icmp eq ptr %39, null
  br i1 %.not59, label %._crit_edge76, label %38, !llvm.loop !22

._crit_edge76:                                    ; preds = %38, %32
  %48 = getelementptr inbounds i8, ptr %4, i64 104
  %49 = getelementptr inbounds [2 x ptr], ptr %48, i64 0, i64 %34
  %50 = load ptr, ptr %49, align 8
  store ptr null, ptr %49, align 8
  %.not6077 = icmp eq ptr %50, null
  br i1 %.not6077, label %._crit_edge81, label %.lr.ph80

.lr.ph80:                                         ; preds = %._crit_edge76
  %51 = getelementptr inbounds i8, ptr %4, i64 152
  br label %52

52:                                               ; preds = %.lr.ph80, %52
  %.078 = phi ptr [ %50, %.lr.ph80 ], [ %53, %52 ]
  %53 = load ptr, ptr %.078, align 8
  %54 = getelementptr inbounds i8, ptr %.078, i64 8
  %55 = load i64, ptr %54, align 8
  %56 = getelementptr inbounds i8, ptr %.078, i64 16
  %57 = load i64, ptr %56, align 8
  %58 = add i64 %55, 24
  %59 = add i64 %58, %57
  tail call void @jFreeSmall(ptr noundef %0, ptr noundef nonnull %.078, i64 noundef %59) #6
  %60 = load i64, ptr %51, align 8
  %61 = sub i64 %60, %59
  store i64 %61, ptr %51, align 8
  %.not60 = icmp eq ptr %53, null
  br i1 %.not60, label %._crit_edge81, label %52, !llvm.loop !23

._crit_edge81:                                    ; preds = %52, %._crit_edge76
  ret void
}